; ModuleID = '19/452.c'
source_filename = "19/452.c"
target datalayout = "e-m:e-p270:32:32-p271:32:32-p272:64:64-i64:64-f80:128-n8:16:32:64-S128"
target triple = "x86_64-pc-linux-gnu"

@.str = private unnamed_addr constant [4 x i8] c"%s \00", align 1
@.str.1 = private unnamed_addr constant [3 x i8] c"%s\00", align 1

; Function Attrs: noinline nounwind uwtable
define dso_local void @main() #0 {
  %1 = alloca [100 x i8], align 16
  %2 = alloca [100 x i8], align 16
  %3 = alloca [100 x i8], align 16
  %4 = alloca [100 x [50 x i8]], align 16
  %5 = alloca i8*, align 8
  %6 = alloca i8*, align 8
  %7 = alloca i32, align 4
  %8 = alloca i32, align 4
  %9 = alloca i32, align 4
  %10 = getelementptr inbounds [100 x i8], [100 x i8]* %1, i64 0, i64 0
  store i8* %10, i8** %5, align 8
  %11 = getelementptr inbounds [100 x i8], [100 x i8]* %3, i64 0, i64 0
  store i8* %11, i8** %6, align 8
  store i32 0, i32* %7, align 4
  store i32 0, i32* %8, align 4
  %12 = getelementptr inbounds [100 x i8], [100 x i8]* %1, i64 0, i64 0
  %13 = call i32 (i8*, ...) bitcast (i32 (...)* @gets to i32 (i8*, ...)*)(i8* %12)
  %14 = getelementptr inbounds [100 x i8], [100 x i8]* %2, i64 0, i64 0
  %15 = call i32 (i8*, ...) bitcast (i32 (...)* @gets to i32 (i8*, ...)*)(i8* %14)
  %16 = getelementptr inbounds [100 x i8], [100 x i8]* %3, i64 0, i64 0
  %17 = call i32 (i8*, ...) bitcast (i32 (...)* @gets to i32 (i8*, ...)*)(i8* %16)
  br label %18

18:                                               ; preds = %49, %0
  %19 = load i8*, i8** %5, align 8
  %20 = load i8, i8* %19, align 1
  %21 = sext i8 %20 to i32
  %22 = icmp ne i32 %21, 0
  br i1 %22, label %23, label %52

23:                                               ; preds = %18
  %24 = load i8*, i8** %5, align 8
  %25 = load i8, i8* %24, align 1
  %26 = sext i8 %25 to i32
  %27 = icmp ne i32 %26, 32
  br i1 %27, label %28, label %39

28:                                               ; preds = %23
  %29 = load i8*, i8** %5, align 8
  %30 = load i8, i8* %29, align 1
  %31 = load i32, i32* %7, align 4
  %32 = sext i32 %31 to i64
  %33 = getelementptr inbounds [100 x [50 x i8]], [100 x [50 x i8]]* %4, i64 0, i64 %32
  %34 = load i32, i32* %8, align 4
  %35 = sext i32 %34 to i64
  %36 = getelementptr inbounds [50 x i8], [50 x i8]* %33, i64 0, i64 %35
  store i8 %30, i8* %36, align 1
  %37 = load i32, i32* %8, align 4
  %38 = add nsw i32 %37, 1
  store i32 %38, i32* %8, align 4
  br label %48

39:                                               ; preds = %23
  %40 = load i32, i32* %7, align 4
  %41 = sext i32 %40 to i64
  %42 = getelementptr inbounds [100 x [50 x i8]], [100 x [50 x i8]]* %4, i64 0, i64 %41
  %43 = load i32, i32* %8, align 4
  %44 = sext i32 %43 to i64
  %45 = getelementptr inbounds [50 x i8], [50 x i8]* %42, i64 0, i64 %44
  store i8 0, i8* %45, align 1
  %46 = load i32, i32* %7, align 4
  %47 = add nsw i32 %46, 1
  store i32 %47, i32* %7, align 4
  store i32 0, i32* %8, align 4
  br label %48

48:                                               ; preds = %39, %28
  br label %49

49:                                               ; preds = %48
  %50 = load i8*, i8** %5, align 8
  %51 = getelementptr inbounds i8, i8* %50, i32 1
  store i8* %51, i8** %5, align 8
  br label %18

52:                                               ; preds = %18
  %53 = load i32, i32* %7, align 4
  %54 = sext i32 %53 to i64
  %55 = getelementptr inbounds [100 x [50 x i8]], [100 x [50 x i8]]* %4, i64 0, i64 %54
  %56 = load i32, i32* %8, align 4
  %57 = sext i32 %56 to i64
  %58 = getelementptr inbounds [50 x i8], [50 x i8]* %55, i64 0, i64 %57
  store i8 0, i8* %58, align 1
  %59 = load i32, i32* %7, align 4
  store i32 %59, i32* %9, align 4
  store i32 0, i32* %7, align 4
  br label %60

60:                                               ; preds = %101, %52
  %61 = load i32, i32* %7, align 4
  %62 = load i32, i32* %9, align 4
  %63 = icmp sle i32 %61, %62
  br i1 %63, label %64, label %104

64:                                               ; preds = %60
  %65 = load i32, i32* %7, align 4
  %66 = sext i32 %65 to i64
  %67 = getelementptr inbounds [100 x [50 x i8]], [100 x [50 x i8]]* %4, i64 0, i64 %66
  %68 = getelementptr inbounds [50 x i8], [50 x i8]* %67, i64 0, i64 0
  %69 = getelementptr inbounds [100 x i8], [100 x i8]* %2, i64 0, i64 0
  %70 = call i32 @strcmp(i8* %68, i8* %69) #3
  %71 = icmp eq i32 %70, 0
  br i1 %71, label %72, label %99

72:                                               ; preds = %64
  store i32 0, i32* %8, align 4
  br label %73

73:                                               ; preds = %87, %72
  %74 = load i8*, i8** %6, align 8
  %75 = load i8, i8* %74, align 1
  %76 = sext i8 %75 to i32
  %77 = icmp ne i32 %76, 0
  br i1 %77, label %78, label %92

78:                                               ; preds = %73
  %79 = load i8*, i8** %6, align 8
  %80 = load i8, i8* %79, align 1
  %81 = load i32, i32* %7, align 4
  %82 = sext i32 %81 to i64
  %83 = getelementptr inbounds [100 x [50 x i8]], [100 x [50 x i8]]* %4, i64 0, i64 %82
  %84 = load i32, i32* %8, align 4
  %85 = sext i32 %84 to i64
  %86 = getelementptr inbounds [50 x i8], [50 x i8]* %83, i64 0, i64 %85
  store i8 %80, i8* %86, align 1
  br label %87

87:                                               ; preds = %78
  %88 = load i8*, i8** %6, align 8
  %89 = getelementptr inbounds i8, i8* %88, i32 1
  store i8* %89, i8** %6, align 8
  %90 = load i32, i32* %8, align 4
  %91 = add nsw i32 %90, 1
  store i32 %91, i32* %8, align 4
  br label %73

92:                                               ; preds = %73
  %93 = load i32, i32* %7, align 4
  %94 = sext i32 %93 to i64
  %95 = getelementptr inbounds [100 x [50 x i8]], [100 x [50 x i8]]* %4, i64 0, i64 %94
  %96 = load i32, i32* %8, align 4
  %97 = sext i32 %96 to i64
  %98 = getelementptr inbounds [50 x i8], [50 x i8]* %95, i64 0, i64 %97
  store i8 0, i8* %98, align 1
  br label %99

99:                                               ; preds = %92, %64
  %100 = getelementptr inbounds [100 x i8], [100 x i8]* %3, i64 0, i64 0
  store i8* %100, i8** %6, align 8
  br label %101

101:                                              ; preds = %99
  %102 = load i32, i32* %7, align 4
  %103 = add nsw i32 %102, 1
  store i32 %103, i32* %7, align 4
  br label %60

104:                                              ; preds = %60
  store i32 0, i32* %7, align 4
  br label %105

105:                                              ; preds = %115, %104
  %106 = load i32, i32* %7, align 4
  %107 = load i32, i32* %9, align 4
  %108 = icmp slt i32 %106, %107
  br i1 %108, label %109, label %118

109:                                              ; preds = %105
  %110 = load i32, i32* %7, align 4
  %111 = sext i32 %110 to i64
  %112 = getelementptr inbounds [100 x [50 x i8]], [100 x [50 x i8]]* %4, i64 0, i64 %111
  %113 = getelementptr inbounds [50 x i8], [50 x i8]* %112, i64 0, i64 0
  %114 = call i32 (i8*, ...) @printf(i8* getelementptr inbounds ([4 x i8], [4 x i8]* @.str, i64 0, i64 0), i8* %113)
  br label %115

115:                                              ; preds = %109
  %116 = load i32, i32* %7, align 4
  %117 = add nsw i32 %116, 1
  store i32 %117, i32* %7, align 4
  br label %105

118:                                              ; preds = %105
  %119 = load i32, i32* %7, align 4
  %120 = sext i32 %119 to i64
  %121 = getelementptr inbounds [100 x [50 x i8]], [100 x [50 x i8]]* %4, i64 0, i64 %120
  %122 = getelementptr inbounds [50 x i8], [50 x i8]* %121, i64 0, i64 0
  %123 = call i32 (i8*, ...) @printf(i8* getelementptr inbounds ([3 x i8], [3 x i8]* @.str.1, i64 0, i64 0), i8* %122)
  ret void
}

declare dso_local i32 @gets(...) #1

; Function Attrs: nounwind readonly
declare dso_local i32 @strcmp(i8*, i8*) #2

declare dso_local i32 @printf(i8*, ...) #1


!llvm.module.flags = !{!0}
!llvm.ident = !{!1}

!0 = !{i32 1, !"wchar_size", i32 4}
!1 = !{!"clang version 10.0.0-4ubuntu1 "}
